; Function Attrs: mustprogress null_pointer_is_valid sspstrong uwtable
define internal void @"_ZN9QtPrivate18QFunctorSlotObjectIZN19WiresharkMainWindow22connectViewMenuActionsEvE3$_0Li1ENS_4ListIJbEEEvE4implEiPNS_15QSlotObjectBaseEP7QObjectPPvPb"(i32 noundef %0, ptr noundef %1, ptr readnone captures(none) %2, ptr noundef readonly captures(none) %3, ptr readnone captures(none) %4) #0 align 2 {
  switch i32 %0, label %"_ZN9QtPrivate7FunctorIZN19WiresharkMainWindow22connectViewMenuActionsEvE3$_0Li1EE4callINS_4ListIJbEEEvEEvRS2_PvPS8_.exit" [
    i32 0, label %6
    i32 1, label %9
  ]

6:                                                ; preds = %5
  %7 = icmp eq ptr %1, null
  br i1 %7, label %"_ZN9QtPrivate7FunctorIZN19WiresharkMainWindow22connectViewMenuActionsEvE3$_0Li1EE4callINS_4ListIJbEEEvEEvRS2_PvPS8_.exit", label %8

8:                                                ; preds = %6
  tail call void @_ZdlPvm(ptr noundef nonnull %1, i64 noundef 24) #26
  br label %"_ZN9QtPrivate7FunctorIZN19WiresharkMainWindow22connectViewMenuActionsEvE3$_0Li1EE4callINS_4ListIJbEEEvEEvRS2_PvPS8_.exit"

9:                                                ; preds = %5
  %10 = getelementptr inbounds nuw i8, ptr %1, i64 16
  %.val = load ptr, ptr %10, align 8
  %11 = getelementptr i8, ptr %3, i64 8
  %.val4 = load ptr, ptr %11, align 8
  %.val4.val = load i8, ptr %.val4, align 1, !range !15, !noundef !16
  %12 = trunc nuw i8 %.val4.val to i1
  br i1 %12, label %13, label %17

13:                                               ; preds = %9
  %14 = tail call noundef zeroext i1 @_ZNK7QWidget11isMaximizedEv(ptr noundef align 8 dereferenceable_or_null(40) %.val)
  %15 = getelementptr inbounds nuw i8, ptr %.val, i64 496
  %16 = zext i1 %14 to i8
  store i8 %16, ptr %15, align 8
  tail call void @_ZN7QWidget14showFullScreenEv(ptr noundef align 8 dereferenceable_or_null(40) %.val)
  br label %"_ZN9QtPrivate7FunctorIZN19WiresharkMainWindow22connectViewMenuActionsEvE3$_0Li1EE4callINS_4ListIJbEEEvEEvRS2_PvPS8_.exit"

17:                                               ; preds = %9
  %18 = getelementptr inbounds nuw i8, ptr %.val, i64 496
  %19 = load i8, ptr %18, align 8, !range !15, !noundef !16
  %20 = trunc nuw i8 %19 to i1
  br i1 %20, label %21, label %22

21:                                               ; preds = %17
  tail call void @_ZN7QWidget13showMaximizedEv(ptr noundef align 8 dereferenceable_or_null(40) %.val)
  br label %"_ZN9QtPrivate7FunctorIZN19WiresharkMainWindow22connectViewMenuActionsEvE3$_0Li1EE4callINS_4ListIJbEEEvEEvRS2_PvPS8_.exit"

22:                                               ; preds = %17
  tail call void @_ZN7QWidget10showNormalEv(ptr noundef align 8 dereferenceable_or_null(40) %.val)
  br label %"_ZN9QtPrivate7FunctorIZN19WiresharkMainWindow22connectViewMenuActionsEvE3$_0Li1EE4callINS_4ListIJbEEEvEEvRS2_PvPS8_.exit"

"_ZN9QtPrivate7FunctorIZN19WiresharkMainWindow22connectViewMenuActionsEvE3$_0Li1EE4callINS_4ListIJbEEEvEEvRS2_PvPS8_.exit": ; preds = %22, %21, %13, %6, %8, %5
  ret void
}